target datalayout = "e-m:e-p270:32:32-p271:32:32-p272:64:64-i64:64-i128:128-f80:128-n8:16:32:64-S128"
target triple = "x86_64-unknown-linux-gnu"

; Function Attrs: nounwind sspstrong uwtable
define dso_local i64 @bitmap_find_next_zero_area(ptr noundef %map, i64 noundef %size, i64 noundef %start, i64 noundef %nr, i64 noundef %align_mask) #0 {
entry:
  %retval = alloca i64, align 8
  %map.addr = alloca ptr, align 8
  %size.addr = alloca i64, align 8
  %start.addr = alloca i64, align 8
  %nr.addr = alloca i64, align 8
  %align_mask.addr = alloca i64, align 8
  %index = alloca i64, align 8
  %end = alloca i64, align 8
  %i = alloca i64, align 8
  store ptr %map, ptr %map.addr, align 8
  store i64 %size, ptr %size.addr, align 8
  store i64 %start, ptr %start.addr, align 8
  store i64 %nr, ptr %nr.addr, align 8
  store i64 %align_mask, ptr %align_mask.addr, align 8
  br label %again

again:                                            ; preds = %if.then4, %entry
  %0 = load ptr, ptr %map.addr, align 8
  %1 = load i64, ptr %size.addr, align 8
  %2 = load i64, ptr %start.addr, align 8
  %call = call i64 @find_next_zero_bit(ptr noundef %0, i64 noundef %1, i64 noundef %2)
  store i64 %call, ptr %index, align 8
  %3 = load i64, ptr %index, align 8
  %4 = load i64, ptr %align_mask.addr, align 8
  %add = add i64 %3, %4
  %5 = load i64, ptr %align_mask.addr, align 8
  %not = xor i64 %5, -1
  %and = and i64 %add, %not
  store i64 %and, ptr %index, align 8
  %6 = load i64, ptr %index, align 8
  %7 = load i64, ptr %nr.addr, align 8
  %add1 = add i64 %6, %7
  store i64 %add1, ptr %end, align 8
  %8 = load i64, ptr %end, align 8
  %9 = load i64, ptr %size.addr, align 8
  %cmp = icmp ugt i64 %8, %9
  br i1 %cmp, label %if.then, label %if.end

if.then:                                          ; preds = %again
  %10 = load i64, ptr %end, align 8
  store i64 %10, ptr %retval, align 8
  br label %return

if.end:                                           ; preds = %again
  %11 = load ptr, ptr %map.addr, align 8
  %12 = load i64, ptr %end, align 8
  %13 = load i64, ptr %index, align 8
  %call2 = call i64 @find_next_bit(ptr noundef %11, i64 noundef %12, i64 noundef %13)
  store i64 %call2, ptr %i, align 8
  %14 = load i64, ptr %i, align 8
  %15 = load i64, ptr %end, align 8
  %cmp3 = icmp ult i64 %14, %15
  br i1 %cmp3, label %if.then4, label %if.end6

if.then4:                                         ; preds = %if.end
  %16 = load i64, ptr %i, align 8
  %add5 = add i64 %16, 1
  store i64 %add5, ptr %start.addr, align 8
  br label %again

if.end6:                                          ; preds = %if.end
  %17 = load i64, ptr %index, align 8
  store i64 %17, ptr %retval, align 8
  br label %return

return:                                           ; preds = %if.end6, %if.then
  %18 = load i64, ptr %retval, align 8
  ret i64 %18
}