; Function Attrs: nounwind sspstrong uwtable
define dso_local i64 @bitmap_find_next_zero_area(ptr noundef %map, i64 noundef %size, i64 noundef %start, i64 noundef %nr, i64 noundef %align_mask) local_unnamed_addr #2 {
entry:
  %call11 = tail call i64 @find_next_zero_bit(ptr noundef %map, i64 noundef %size, i64 noundef %start) #11
  %add12 = add i64 %call11, %align_mask
  %not = xor i64 %align_mask, -1
  %and13 = and i64 %add12, %not
  %add114 = add i64 %and13, %nr
  %cmp15 = icmp ugt i64 %add114, %size
  br i1 %cmp15, label %return, label %if.end

again:                                            ; preds = %if.end
  %add5 = add nuw i64 %call2, 1
  %call = tail call i64 @find_next_zero_bit(ptr noundef %map, i64 noundef %size, i64 noundef %add5) #11
  %add = add i64 %call, %align_mask
  %and = and i64 %add, %not
  %add1 = add i64 %and, %nr
  %cmp = icmp ugt i64 %add1, %size
  br i1 %cmp, label %return, label %if.end

if.end:                                           ; preds = %entry, %again
  %add117 = phi i64 [ %add1, %again ], [ %add114, %entry ]
  %and16 = phi i64 [ %and, %again ], [ %and13, %entry ]
  %call2 = tail call i64 @find_next_bit(ptr noundef %map, i64 noundef %add117, i64 noundef %and16) #11
  %cmp3 = icmp ult i64 %call2, %add117
  br i1 %cmp3, label %again, label %return

return:                                           ; preds = %again, %if.end, %entry
  %retval.0 = phi i64 [ %add114, %entry ], [ %and16, %if.end ], [ %add1, %again ]
  ret i64 %retval.0
}